target datalayout = "e-m:e-p270:32:32-p271:32:32-p272:64:64-i64:64-i128:128-f80:128-n8:16:32:64-S128"
target triple = "x86_64-pc-linux-gnu"

%struct._iface_toolbar = type { ptr, ptr, ptr, ptr }

; Function Attrs: null_pointer_is_valid sspstrong uwtable
define internal void @extcap_free_toolbar(ptr noundef %0) #0 {
  %2 = alloca ptr, align 8
  %3 = alloca ptr, align 8
  store ptr %0, ptr %2, align 8
  %4 = load ptr, ptr %2, align 8
  %5 = icmp ne ptr %4, null
  br i1 %5, label %7, label %6

6:                                                ; preds = %1
  br label %22

7:                                                ; preds = %1
  call void @llvm.lifetime.start.p0(i64 8, ptr %3) #9
  %8 = load ptr, ptr %2, align 8
  store ptr %8, ptr %3, align 8
  %9 = load ptr, ptr %3, align 8
  %10 = getelementptr inbounds nuw %struct._iface_toolbar, ptr %9, i32 0, i32 0
  %11 = load ptr, ptr %10, align 8
  call void @g_free(ptr noundef %11)
  %12 = load ptr, ptr %3, align 8
  %13 = getelementptr inbounds nuw %struct._iface_toolbar, ptr %12, i32 0, i32 1
  %14 = load ptr, ptr %13, align 8
  call void @g_free(ptr noundef %14)
  %15 = load ptr, ptr %3, align 8
  %16 = getelementptr inbounds nuw %struct._iface_toolbar, ptr %15, i32 0, i32 2
  %17 = load ptr, ptr %16, align 8
  call void @g_list_free_full(ptr noundef %17, ptr noundef @g_free)
  %18 = load ptr, ptr %3, align 8
  %19 = getelementptr inbounds nuw %struct._iface_toolbar, ptr %18, i32 0, i32 3
  %20 = load ptr, ptr %19, align 8
  call void @g_list_free_full(ptr noundef %20, ptr noundef @extcap_free_toolbar_control)
  %21 = load ptr, ptr %3, align 8
  call void @g_free(ptr noundef %21)
  call void @llvm.lifetime.end.p0(i64 8, ptr %3) #9
  br label %22

22:                                               ; preds = %7, %6
  ret void
}