; Function Attrs: null_pointer_is_valid sspstrong uwtable
define internal void @extcap_free_toolbar(ptr noundef %0) #0 {
  %.not = icmp eq ptr %0, null
  br i1 %.not, label %10, label %2

2:                                                ; preds = %1
  %3 = load ptr, ptr %0, align 8
  tail call void @g_free(ptr noundef %3)
  %4 = getelementptr inbounds nuw i8, ptr %0, i64 8
  %5 = load ptr, ptr %4, align 8
  tail call void @g_free(ptr noundef %5)
  %6 = getelementptr inbounds nuw i8, ptr %0, i64 16
  %7 = load ptr, ptr %6, align 8
  tail call void @g_list_free_full(ptr noundef %7, ptr noundef nonnull @g_free)
  %8 = getelementptr inbounds nuw i8, ptr %0, i64 24
  %9 = load ptr, ptr %8, align 8
  tail call void @g_list_free_full(ptr noundef %9, ptr noundef nonnull @extcap_free_toolbar_control)
  tail call void @g_free(ptr noundef nonnull %0)
  br label %10

10:                                               ; preds = %1, %2
  ret void
}